target datalayout = "e-m:e-p270:32:32-p271:32:32-p272:64:64-i64:64-i128:128-f80:128-n8:16:32:64-S128"
target triple = "x86_64-pc-linux-gnu"

%struct.cache_bin_info_s = type { i16 }
%struct.tcache_slow_s = type { %struct.anon, %struct.cache_bin_array_descriptor_s, ptr, i32, i32, [36 x i8], [36 x i8], [36 x i8], ptr, ptr }
%struct.anon = type { ptr, ptr }
%struct.cache_bin_array_descriptor_s = type { %struct.anon.0, ptr }
%struct.anon.0 = type { ptr, ptr }
%struct.tcache_s = type { ptr, [73 x %struct.cache_bin_s] }
%struct.cache_bin_s = type { ptr, %struct.cache_bin_stats_s, i16, i16, i16, %struct.cache_bin_info_s }
%struct.cache_bin_stats_s = type { i64 }
%struct.rtree_ctx_s = type { [16 x %struct.rtree_ctx_cache_elm_s], [8 x %struct.rtree_ctx_cache_elm_s] }
%struct.rtree_ctx_cache_elm_s = type { i64, ptr }
%struct.tsd_s = type { i8, i8, i8, i64, i64, i64, i64, i64, i64, i64, i64, i64, i64, i64, i64, ptr, i64, i64, i64, ptr, ptr, %struct.ticker_geom_s, i8, %struct.tsd_binshards_s, %struct.tsd_link_t, i8, %struct.peak_s, %struct.activity_callback_thunk_s, %struct.tcache_slow_s, %struct.rtree_ctx_s, %struct.atomic_u8_t, i64, i64, i64, i64, %struct.tcache_s, %struct.witness_tsd_s }
%struct.ticker_geom_s = type { i32, i32 }
%struct.tsd_binshards_s = type { [36 x i8] }
%struct.tsd_link_t = type { ptr, ptr }
%struct.peak_s = type { i64, i64 }
%struct.activity_callback_thunk_s = type { ptr, ptr }
%struct.atomic_u8_t = type { i8 }
%struct.witness_tsd_s = type { %struct.witness_list_t, i8 }
%struct.witness_list_t = type { ptr }

@duckdb_je_opt_tcache = global i8 1, align 1
@duckdb_je_global_do_not_change_tcache_nbins = global i32 0, align 4
@opt_tcache_ncached_max = internal global [73 x %struct.cache_bin_info_s] zeroinitializer, align 16

; Function Attrs: alwaysinline nounwind uwtable
define internal ptr @tsd_tcache_enabledp_get_unsafe(ptr noundef %0) #1 {
  %2 = alloca ptr, align 8
  store ptr %0, ptr %2, align 8, !tbaa !13
  %3 = load ptr, ptr %2, align 8, !tbaa !13
  %4 = getelementptr inbounds nuw %struct.tsd_s, ptr %3, i32 0, i32 0
  ret ptr %4
}

; Function Attrs: alwaysinline nounwind uwtable
define internal ptr @tsd_tcache_slowp_get_unsafe(ptr noundef %0) #1 {
  %2 = alloca ptr, align 8
  store ptr %0, ptr %2, align 8, !tbaa !13
  %3 = load ptr, ptr %2, align 8, !tbaa !13
  %4 = getelementptr inbounds nuw %struct.tsd_s, ptr %3, i32 0, i32 28
  ret ptr %4
}

; Function Attrs: alwaysinline nounwind uwtable
define internal zeroext i8 @tsd_state_get(ptr noundef %0) #1 {
  %2 = alloca ptr, align 8
  store ptr %0, ptr %2, align 8, !tbaa !13
  %3 = load ptr, ptr %2, align 8, !tbaa !13
  %4 = getelementptr inbounds nuw %struct.tsd_s, ptr %3, i32 0, i32 30
  %5 = load i8, ptr %4, align 8, !tbaa !36
  ret i8 %5
}

; Function Attrs: alwaysinline nounwind uwtable
define internal ptr @tsd_tcache_enabledp_get(ptr noundef %0) #1 {
  %2 = alloca ptr, align 8
  %3 = alloca i8, align 1
  store ptr %0, ptr %2, align 8, !tbaa !13
  call void @llvm.lifetime.start.p0(i64 1, ptr %3) #13
  %4 = load ptr, ptr %2, align 8, !tbaa !13
  %5 = call zeroext i8 @tsd_state_get(ptr noundef %4)
  store i8 %5, ptr %3, align 1, !tbaa !36
  br label %6

6:                                                ; preds = %1
  br label %7

7:                                                ; preds = %6
  br label %8

8:                                                ; preds = %7
  %9 = load ptr, ptr %2, align 8, !tbaa !13
  %10 = call ptr @tsd_tcache_enabledp_get_unsafe(ptr noundef %9)
  call void @llvm.lifetime.end.p0(i64 1, ptr %3) #13
  ret ptr %10
}

; Function Attrs: nounwind uwtable
define internal ptr @tcache_get_default_ncached_max() #0 {
  ret ptr @opt_tcache_ncached_max
}

; Function Attrs: nounwind uwtable
define internal void @tcache_default_settings_init(ptr noundef %0) #0 {
  %2 = alloca ptr, align 8
  store ptr %0, ptr %2, align 8, !tbaa !19
  br label %3

3:                                                ; preds = %1
  br label %4

4:                                                ; preds = %3
  br label %5

5:                                                ; preds = %4
  br label %6

6:                                                ; preds = %5
  br label %7

7:                                                ; preds = %6
  br label %8

8:                                                ; preds = %7
  %9 = load i32, ptr @duckdb_je_global_do_not_change_tcache_nbins, align 4, !tbaa !29
  %10 = load ptr, ptr %2, align 8, !tbaa !19
  %11 = getelementptr inbounds nuw %struct.tcache_slow_s, ptr %10, i32 0, i32 3
  store i32 %9, ptr %11, align 8, !tbaa !115
  ret void
}

; Function Attrs: alwaysinline nounwind uwtable
define internal ptr @tsd_tcache_slowp_get(ptr noundef %0) #1 {
  %2 = alloca ptr, align 8
  %3 = alloca i8, align 1
  store ptr %0, ptr %2, align 8, !tbaa !13
  call void @llvm.lifetime.start.p0(i64 1, ptr %3) #13
  %4 = load ptr, ptr %2, align 8, !tbaa !13
  %5 = call zeroext i8 @tsd_state_get(ptr noundef %4)
  store i8 %5, ptr %3, align 1, !tbaa !36
  br label %6

6:                                                ; preds = %1
  br label %7

7:                                                ; preds = %6
  br label %8

8:                                                ; preds = %7
  %9 = load ptr, ptr %2, align 8, !tbaa !13
  %10 = call ptr @tsd_tcache_slowp_get_unsafe(ptr noundef %9)
  call void @llvm.lifetime.end.p0(i64 1, ptr %3) #13
  ret ptr %10
}

; Function Attrs: alwaysinline nounwind uwtable
define internal void @tsd_tcache_enabled_set(ptr noundef %0, i1 noundef zeroext %1) #1 {
  %3 = alloca ptr, align 8
  %4 = alloca i8, align 1
  store ptr %0, ptr %3, align 8, !tbaa !13
  %5 = zext i1 %1 to i8
  store i8 %5, ptr %4, align 1, !tbaa !30
  br label %6

6:                                                ; preds = %2
  br label %7

7:                                                ; preds = %6
  %8 = load i8, ptr %4, align 1, !tbaa !30, !range !32, !noundef !33
  %9 = trunc i8 %8 to i1
  %10 = load ptr, ptr %3, align 8, !tbaa !13
  %11 = call ptr @tsd_tcache_enabledp_get(ptr noundef %10)
  %12 = zext i1 %9 to i8
  store i8 %12, ptr %11, align 1, !tbaa !30
  ret void
}

; Function Attrs: nounwind uwtable
define zeroext i1 @duckdb_je_tsd_tcache_enabled_data_init(ptr noundef %0) #0 {
  %2 = alloca ptr, align 8
  store ptr %0, ptr %2, align 8, !tbaa !13
  %3 = load ptr, ptr %2, align 8, !tbaa !13
  %4 = load i8, ptr @duckdb_je_opt_tcache, align 1, !tbaa !30, !range !32, !noundef !33
  %5 = trunc i8 %4 to i1
  call void @tsd_tcache_enabled_set(ptr noundef %3, i1 noundef zeroext %5)
  %6 = load ptr, ptr %2, align 8, !tbaa !13
  %7 = call ptr @tsd_tcache_slowp_get(ptr noundef %6)
  call void @tcache_default_settings_init(ptr noundef %7)
  %8 = load ptr, ptr %2, align 8, !tbaa !13
  call void @duckdb_je_tsd_slow_update(ptr noundef %8)
  %9 = load i8, ptr @duckdb_je_opt_tcache, align 1, !tbaa !30, !range !32, !noundef !33
  %10 = trunc i8 %9 to i1
  br i1 %10, label %11, label %15

11:                                               ; preds = %1
  %12 = load ptr, ptr %2, align 8, !tbaa !13
  %13 = call ptr @tcache_get_default_ncached_max()
  %14 = call zeroext i1 @duckdb_je_tsd_tcache_data_init(ptr noundef %12, ptr noundef null, ptr noundef %13)
  br label %15

15:                                               ; preds = %11, %1
  ret i1 false
}